(iPlayer
Player
p1
(dp2
S'goalsAllTime'
p3
I43
sS'firstName'
p4
S'Matt'
p5
sS'lastName'
p6
S'Egan'
p7
sS'goalsThisSeason'
p8
I0
sS'teamName'
p9
S'Ass'
p10
sS'jerseyNumber'
p11
I80
sS'assistsAllTime'
p12
I7
sS'pointsAllTime'
p13
I50
sS'assistsThisSeason'
p14
I0
sS'fullName'
p15
S'Matt Egan'
p16
sS'pointsThisSeason'
p17
I0
sb.