(iPlayer
Player
p1
(dp2
S'goalsAllTime'
p3
I20
sS'firstName'
p4
S'Alex'
p5
sS'lastName'
p6
S'MacKenzie'
p7
sS'goalsThisSeason'
p8
I5
sS'teamName'
p9
S'Assassins'
p10
sS'jerseyNumber'
p11
I55
sS'assistsAllTime'
p12
I15
sS'idNum'
p13
S'a256f08953e32e0a81a1848371a63f6706686f41f24aa7f74cb7fff37160b70d'
p14
sS'pointsAllTime'
p15
I35
sS'assistsThisSeason'
p16
I0
sS'fullName'
p17
S'Alex MacKenzie'
p18
sS'pointsThisSeason'
p19
I5
sb.