(iPlayer
Player
p1
(dp2
S'goalsAllTime'
p3
I16
sS'firstName'
p4
S'Alex'
p5
sS'lastName'
p6
S'Mack'
p7
sS'goalsThisSeason'
p8
I3
sS'teamName'
p9
S'ASA'
p10
sS'jerseyNumber'
p11
I65
sS'assistsAllTime'
p12
I13
sS'idNum'
p13
S'e1ee94506ac9756e27f91a28f027d3deb64823611c0a8b0dfd196c16649b3ee0'
p14
sS'pointsAllTime'
p15
I29
sS'assistsThisSeason'
p16
I0
sS'fullName'
p17
S'Alex Mack'
p18
sS'pointsThisSeason'
p19
I3
sb.