(iPlayer
Player
p1
(dp2
S'goalsAllTime'
p3
I6
sS'firstName'
p4
S'Gav'
p5
sS'lastName'
p6
S'Asher'
p7
sS'goalsThisSeason'
p8
I5
sS'teamName'
p9
S'Wolves'
p10
sS'jerseyNumber'
p11
I66
sS'assistsAllTime'
p12
I2
sS'idNum'
p13
S'cf38791ada678e799a01a9e0b6df948aa46eda364cb5d3f11c4fab63801ffc44'
p14
sS'pointsAllTime'
p15
I8
sS'assistsThisSeason'
p16
I0
sS'fullName'
p17
S'Gav Asher'
p18
sS'pointsThisSeason'
p19
I5
sb.