(iPlayer
Player
p1
(dp2
S'goalsAllTime'
p3
I15
sS'firstName'
p4
S'Matthew'
p5
sS'lastName'
p6
S'Egan'
p7
sS'goalsThisSeason'
p8
I0
sS'teamName'
p9
S'Assassins'
p10
sS'jerseyNumber'
p11
I80
sS'assistsAllTime'
p12
I15
sS'idNum'
p13
S'40d28517ec74d723b070aa576dfdf085dc179cdfeb05ceea9c8297271775ca8d'
p14
sS'pointsAllTime'
p15
I30
sS'assistsThisSeason'
p16
I0
sS'fullName'
p17
S'Matthew Egan'
p18
sS'pointsThisSeason'
p19
I0
sb.